CCS PCM C Compiler, Version 5.007, 61971               23-Þub-19 12:11

               Filename:   C:\Users\NURULLAH\Desktop\Yeni klasör\main.lst

               ROM used:   113 words (1%)
                           Largest free fragment is 2048
               RAM used:   6 (2%) at main() level
                           11 (3%) worst case
               Stack used: 0 locations
               Stack size: 8

*
0000:  MOVLW  00
0001:  MOVWF  0A
0002:  GOTO   018
0003:  NOP
.................... #include <main.h> 
.................... #include <16F877A.h> 
.................... //////// Standard Header file for the PIC16F877A device //////////////// 
.................... #device PIC16F877A 
....................  
.................... #list 
....................  
.................... #device ADC=16 
....................  
.................... #FUSES NOWDT                    //No Watch Dog Timer 
.................... #FUSES NOBROWNOUT               //No brownout reset 
.................... #FUSES NOLVP                    //No low voltage prgming, B3(PIC16) or B5(PIC18) used for I/O 
....................  
.................... #use delay(crystal=20MHz) 
0004:  MOVLW  25
0005:  MOVWF  04
0006:  BCF    03.7
0007:  MOVF   00,W
0008:  BTFSC  03.2
0009:  GOTO   017
000A:  MOVLW  06
000B:  MOVWF  78
000C:  CLRF   77
000D:  DECFSZ 77,F
000E:  GOTO   00D
000F:  DECFSZ 78,F
0010:  GOTO   00C
0011:  MOVLW  7B
0012:  MOVWF  77
0013:  DECFSZ 77,F
0014:  GOTO   013
0015:  DECFSZ 00,F
0016:  GOTO   00A
0017:  RETURN
....................  
....................  
....................  
.................... #use fast_io(a) 
.................... #use fast_io(b) 
....................  
.................... void main() 
0018:  MOVLW  FF
0019:  MOVWF  20
001A:  BSF    03.5
001B:  BSF    1F.0
001C:  BSF    1F.1
001D:  BSF    1F.2
001E:  BCF    1F.3
001F:  MOVLW  07
0020:  MOVWF  1C
0021:  BCF    03.7
0022:  MOVLW  1F
0023:  ANDWF  03,F
.................... { 
.................... set_tris_a(0x01); 
0024:  MOVLW  01
0025:  MOVWF  05
.................... set_tris_b(0x00); 
0026:  MOVLW  00
0027:  MOVWF  06
.................... setup_psp(psp_disabled); 
0028:  BCF    09.4
.................... setup_ccp1(ccp_off); 
0029:  MOVLW  F0
002A:  BCF    03.5
002B:  ANDWF  17,F
.................... setup_ccp2(ccp_off); 
002C:  ANDWF  1D,F
.................... setup_timer_1(t1_disabled); 
002D:  CLRF   10
.................... setup_timer_2(t2_disabled,0,1); 
002E:  MOVLW  00
002F:  MOVWF  78
0030:  MOVWF  12
0031:  MOVLW  00
0032:  BSF    03.5
0033:  MOVWF  12
.................... setup_adc_ports(no_analogs); 
0034:  BSF    1F.0
0035:  BSF    1F.1
0036:  BSF    1F.2
0037:  BCF    1F.3
.................... setup_adc(adc_off); 
0038:  BCF    03.5
0039:  BCF    1F.0
....................  
.................... int y=0; 
003A:  CLRF   21
....................    while(TRUE) 
....................    { 
....................     int led=1; 
003B:  MOVLW  01
003C:  MOVWF  22
....................      
....................    for(int i=0;i<=7;i++) 
003D:  CLRF   23
003E:  MOVF   23,W
003F:  SUBLW  07
0040:  BTFSS  03.0
0041:  GOTO   050
....................    { 
....................     output_c(led); 
0042:  MOVLW  00
0043:  MOVWF  20
0044:  BSF    03.5
0045:  CLRF   07
0046:  BCF    03.5
0047:  MOVF   22,W
0048:  MOVWF  07
....................    led=led<<1; 
0049:  BCF    03.0
004A:  RLF    22,F
....................    delay_ms(100); 
004B:  MOVLW  64
004C:  MOVWF  25
004D:  CALL   004
004E:  INCF   23,F
004F:  GOTO   03E
....................    } 
....................    led=0x80; 
0050:  MOVLW  80
0051:  MOVWF  22
....................    output_c(led); 
0052:  MOVLW  00
0053:  MOVWF  20
0054:  BSF    03.5
0055:  CLRF   07
0056:  BCF    03.5
0057:  MOVF   22,W
0058:  MOVWF  07
....................    delay_ms(100); 
0059:  MOVLW  64
005A:  MOVWF  25
005B:  CALL   004
....................  for(int a=0;a<=7;a++) 
005C:  CLRF   24
005D:  MOVF   24,W
005E:  SUBLW  07
005F:  BTFSS  03.0
0060:  GOTO   06F
....................       { 
....................         output_c(led); 
0061:  MOVLW  00
0062:  MOVWF  20
0063:  BSF    03.5
0064:  CLRF   07
0065:  BCF    03.5
0066:  MOVF   22,W
0067:  MOVWF  07
....................         led=led>>1; 
0068:  BCF    03.0
0069:  RRF    22,F
....................         delay_ms(100); 
006A:  MOVLW  64
006B:  MOVWF  25
006C:  CALL   004
006D:  INCF   24,F
006E:  GOTO   05D
....................       } 
006F:  GOTO   03B
....................     
....................    } 
....................     
....................    } 
....................  
0070:  SLEEP
....................  

Configuration Fuses:
   Word  1: 3F32   HS NOWDT PUT NOBROWNOUT NOLVP NOCPD NOWRT NODEBUG NOPROTECT
