CCS PCM C Compiler, Version 5.007, 61971               22-Eyl-19 19:12

               Filename:   C:\Users\NURULLAH\Desktop\ccs c örnek\binary sayýcý\çalýþma.lst

               ROM used:   76 words (1%)
                           Largest free fragment is 2048
               RAM used:   6 (2%) at main() level
                           7 (2%) worst case
               Stack used: 0 locations
               Stack size: 8

*
0000:  MOVLW  00
0001:  MOVWF  0A
0002:  GOTO   004
0003:  NOP
.................... #include <çalýþma.h> 
.................... #include <16F877A.h> 
.................... //////// Standard Header file for the PIC16F877A device //////////////// 
.................... #device PIC16F877A 
....................  
.................... #list 
....................  
.................... #device ADC=16 
....................  
.................... #FUSES NOWDT                 	//No Watch Dog Timer 
.................... #FUSES NOBROWNOUT            	//No brownout reset 
.................... #FUSES NOLVP                 	//No low voltage prgming, B3(PIC16) or B5(PIC18) used for I/O 
....................  
.................... #use delay(crystal=20000000) 
....................  
....................  
.................... void main() 
0004:  MOVLW  FF
0005:  MOVWF  20
0006:  BSF    03.5
0007:  BSF    1F.0
0008:  BSF    1F.1
0009:  BSF    1F.2
000A:  BCF    1F.3
000B:  MOVLW  07
000C:  MOVWF  1C
000D:  BCF    03.7
000E:  MOVLW  1F
000F:  ANDWF  03,F
.................... { 
.................... set_tris_a(0x01); 
0010:  MOVLW  01
0011:  MOVWF  05
.................... set_tris_c(0x00); 
0012:  MOVLW  00
0013:  MOVWF  07
0014:  BCF    03.5
0015:  MOVWF  20
.................... setup_timer_1(T1_DISABLED); 
0016:  CLRF   10
.................... setup_timer_2(T2_DISABLED,0,1); 
0017:  MOVWF  78
0018:  MOVWF  12
0019:  MOVLW  00
001A:  BSF    03.5
001B:  MOVWF  12
.................... setup_psp(PSP_DISABLED); 
001C:  BCF    09.4
.................... setup_adc_ports(NO_ANALOGS); 
001D:  BSF    1F.0
001E:  BSF    1F.1
001F:  BSF    1F.2
0020:  BCF    1F.3
.................... setup_adc(adc_off); 
0021:  BCF    03.5
0022:  BCF    1F.0
.................... setup_ccp1(ccp_off); 
0023:  MOVLW  F0
0024:  ANDWF  17,F
.................... setup_ccp2(ccp_off); 
0025:  ANDWF  1D,F
.................... setup_comparator(nc_nc_nc_nc); 
0026:  MOVLW  07
0027:  BSF    03.5
0028:  MOVWF  1C
0029:  MOVF   05,W
002A:  MOVWF  05
002B:  MOVLW  10
002C:  MOVWF  77
002D:  DECFSZ 77,F
002E:  GOTO   02D
002F:  NOP
0030:  MOVF   1C,W
0031:  BCF    03.5
0032:  BCF    0D.6
.................... setup_vref(false); 
0033:  BSF    03.5
0034:  CLRF   1D
....................  
.................... output_b(0x00); 
0035:  CLRF   06
0036:  BCF    03.5
0037:  CLRF   06
.................... int i=1; 
0038:  MOVLW  01
0039:  MOVWF  21
.................... while(1) 
.................... { 
.................... if(input(pin_a0)) 
003A:  BSF    03.5
003B:  BSF    05.0
003C:  BCF    03.5
003D:  BTFSS  05.0
003E:  GOTO   04A
.................... { 
....................    while(input(pin_a0)); 
003F:  BSF    03.5
0040:  BSF    05.0
0041:  BCF    03.5
0042:  BTFSC  05.0
0043:  GOTO   03F
....................    output_b(i); 
0044:  BSF    03.5
0045:  CLRF   06
0046:  BCF    03.5
0047:  MOVF   21,W
0048:  MOVWF  06
....................    i++; 
0049:  INCF   21,F
.................... } 
004A:  GOTO   03A
....................  } 
.................... } 
....................     
004B:  SLEEP
....................  
....................  
....................  

Configuration Fuses:
   Word  1: 3F32   HS NOWDT PUT NOBROWNOUT NOLVP NOCPD NOWRT NODEBUG NOPROTECT
